target datalayout = "e-m:e-p270:32:32-p271:32:32-p272:64:64-i64:64-i128:128-f80:128-n8:16:32:64-S128"
target triple = "x86_64-pc-linux-gnu"

%struct._zend_json_globals = type { i32, i32, i32 }
%struct._php_json_encoder = type { i32, i32, i32 }

@json_globals = dso_local global %struct._zend_json_globals zeroinitializer, align 4

; Function Attrs: inlinehint nounwind uwtable
define internal void @php_json_encode_init(ptr noundef %0) #3 {
  %2 = alloca ptr, align 8
  store ptr %0, ptr %2, align 8, !tbaa !24
  %3 = load ptr, ptr %2, align 8, !tbaa !24
  call void @llvm.memset.p0.i64(ptr align 4 %3, i8 0, i64 12, i1 false)
  ret void
}

; Function Attrs: nounwind uwtable
define dso_local i32 @php_json_encode_ex(ptr noundef %0, ptr noundef %1, i32 noundef %2, i64 noundef %3) #0 {
  %5 = alloca ptr, align 8
  %6 = alloca ptr, align 8
  %7 = alloca i32, align 4
  %8 = alloca i64, align 8
  %9 = alloca %struct._php_json_encoder, align 4
  %10 = alloca i32, align 4
  store ptr %0, ptr %5, align 8, !tbaa !26
  store ptr %1, ptr %6, align 8, !tbaa !27
  store i32 %2, ptr %7, align 4, !tbaa !4
  store i64 %3, ptr %8, align 8, !tbaa !22
  call void @llvm.lifetime.start.p0(i64 12, ptr %9) #14
  call void @llvm.lifetime.start.p0(i64 4, ptr %10) #14
  call void @php_json_encode_init(ptr noundef %9)
  %11 = load i64, ptr %8, align 8, !tbaa !22
  %12 = trunc i64 %11 to i32
  %13 = getelementptr inbounds nuw %struct._php_json_encoder, ptr %9, i32 0, i32 1
  store i32 %12, ptr %13, align 4, !tbaa !29
  %14 = load ptr, ptr %5, align 8, !tbaa !26
  %15 = load ptr, ptr %6, align 8, !tbaa !27
  %16 = load i32, ptr %7, align 4, !tbaa !4
  %17 = call i32 @php_json_encode_zval(ptr noundef %14, ptr noundef %15, i32 noundef %16, ptr noundef %9)
  store i32 %17, ptr %10, align 4, !tbaa !4
  %18 = getelementptr inbounds nuw %struct._php_json_encoder, ptr %9, i32 0, i32 2
  %19 = load i32, ptr %18, align 4, !tbaa !31
  store i32 %19, ptr getelementptr inbounds nuw (%struct._zend_json_globals, ptr @json_globals, i32 0, i32 2), align 4, !tbaa !12
  %20 = load i32, ptr %10, align 4, !tbaa !4
  call void @llvm.lifetime.end.p0(i64 4, ptr %10) #14
  call void @llvm.lifetime.end.p0(i64 12, ptr %9) #14
  ret i32 %20
}