; Function Attrs: nounwind uwtable
define dso_local i32 @php_json_encode_ex(ptr noundef %0, ptr noundef %1, i32 noundef %2, i64 noundef %3) local_unnamed_addr #0 {
  %5 = alloca %struct._php_json_encoder, align 4
  call void @llvm.lifetime.start.p0(i64 12, ptr nonnull %5) #13
  call void @llvm.memset.p0.i64(ptr noundef nonnull align 4 dereferenceable(12) %5, i8 0, i64 12, i1 false)
  %6 = trunc i64 %3 to i32
  %7 = getelementptr inbounds nuw i8, ptr %5, i64 4
  store i32 %6, ptr %7, align 4, !tbaa !44
  %8 = call i32 @php_json_encode_zval(ptr noundef %0, ptr noundef %1, i32 noundef %2, ptr noundef nonnull %5) #13
  %9 = getelementptr inbounds nuw i8, ptr %5, i64 8
  %10 = load i32, ptr %9, align 4, !tbaa !46
  store i32 %10, ptr getelementptr inbounds nuw (i8, ptr @json_globals, i64 8), align 4, !tbaa !31
  call void @llvm.lifetime.end.p0(i64 12, ptr nonnull %5) #13
  ret i32 %8
}